target datalayout = "e-m:e-p270:32:32-p271:32:32-p272:64:64-i64:64-i128:128-f80:128-n8:16:32:64-S128"
target triple = "x86_64-pc-linux-gnu"

%"class.Assimp::STEP::LazyObject" = type { i64, ptr, ptr, ptr, ptr }

; Function Attrs: mustprogress nounwind uwtable
define hidden void @_ZN6Assimp4STEP10LazyObjectD2Ev(ptr noundef nonnull align 8 dereferenceable(40) %0) unnamed_addr #4 align 2 {
  %2 = alloca ptr, align 8
  store ptr %0, ptr %2, align 8
  %3 = load ptr, ptr %2, align 8
  %4 = getelementptr inbounds nuw %"class.Assimp::STEP::LazyObject", ptr %3, i32 0, i32 4
  %5 = load ptr, ptr %4, align 8
  %6 = icmp ne ptr %5, null
  br i1 %6, label %7, label %16

7:                                                ; preds = %1
  %8 = getelementptr inbounds nuw %"class.Assimp::STEP::LazyObject", ptr %3, i32 0, i32 4
  %9 = load ptr, ptr %8, align 8
  %10 = icmp eq ptr %9, null
  br i1 %10, label %15, label %11

11:                                               ; preds = %7
  %12 = load ptr, ptr %9, align 8
  %13 = getelementptr inbounds ptr, ptr %12, i64 1
  %14 = load ptr, ptr %13, align 8
  call void %14(ptr noundef nonnull align 8 dereferenceable(24) %9) #21
  br label %15

15:                                               ; preds = %11, %7
  br label %22

16:                                               ; preds = %1
  %17 = getelementptr inbounds nuw %"class.Assimp::STEP::LazyObject", ptr %3, i32 0, i32 3
  %18 = load ptr, ptr %17, align 8
  %19 = icmp eq ptr %18, null
  br i1 %19, label %21, label %20

20:                                               ; preds = %16
  call void @_ZdaPv(ptr noundef %18) #25
  br label %21

21:                                               ; preds = %20, %16
  br label %22

22:                                               ; preds = %21, %15
  ret void
}